target datalayout = "e-m:e-p270:32:32-p271:32:32-p272:64:64-i64:64-i128:128-f80:128-n8:16:32:64-S128"
target triple = "x86_64-unknown-linux-gnu"

%"class.boost::detail::shared_count" = type { ptr }
%"class.QuantLib::DayCounter" = type { %"class.boost::shared_ptr.15" }
%"class.boost::shared_ptr.15" = type { ptr, %"class.boost::detail::shared_count" }
%"class.QuantLib::Date" = type { i64 }
%"class.QuantLib::InflationTermStructure" = type <{ %"class.QuantLib::TermStructure.base", %"class.boost::shared_ptr.17", %"class.QuantLib::Period", i32, [4 x i8], double, %"class.QuantLib::Date", i8, [7 x i8], %"class.QuantLib::Observer", %"class.QuantLib::Observable" }>
%"class.QuantLib::TermStructure.base" = type { %"class.QuantLib::Extrapolator.base", i8, i8, %"class.QuantLib::Calendar", %"class.QuantLib::Date", i32, %"class.QuantLib::DayCounter" }
%"class.QuantLib::Extrapolator.base" = type <{ ptr, i8 }>
%"class.QuantLib::Calendar" = type { %"class.boost::shared_ptr.16" }
%"class.boost::shared_ptr.16" = type { ptr, %"class.boost::detail::shared_count" }
%"class.boost::shared_ptr.17" = type { ptr, %"class.boost::detail::shared_count" }
%"class.QuantLib::Period" = type { i32, i32 }
%"class.QuantLib::Observer" = type { ptr, %"class.std::set" }
%"class.std::set" = type { %"class.std::_Rb_tree" }
%"class.std::_Rb_tree" = type { %"struct.std::_Rb_tree<boost::shared_ptr<QuantLib::Observable>, boost::shared_ptr<QuantLib::Observable>, std::_Identity<boost::shared_ptr<QuantLib::Observable>>, std::less<boost::shared_ptr<QuantLib::Observable>>>::_Rb_tree_impl" }
%"struct.std::_Rb_tree<boost::shared_ptr<QuantLib::Observable>, boost::shared_ptr<QuantLib::Observable>, std::_Identity<boost::shared_ptr<QuantLib::Observable>>, std::less<boost::shared_ptr<QuantLib::Observable>>>::_Rb_tree_impl" = type { [8 x i8], %"struct.std::_Rb_tree_header" }
%"struct.std::_Rb_tree_header" = type { %"struct.std::_Rb_tree_node_base", i64 }
%"struct.std::_Rb_tree_node_base" = type { i32, ptr, ptr, ptr }
%"class.QuantLib::Observable" = type { ptr, %"class.std::set.0" }
%"class.std::set.0" = type { %"class.std::_Rb_tree.1" }
%"class.std::_Rb_tree.1" = type { %"struct.std::_Rb_tree<QuantLib::Observer *, QuantLib::Observer *, std::_Identity<QuantLib::Observer *>, std::less<QuantLib::Observer *>>::_Rb_tree_impl" }
%"struct.std::_Rb_tree<QuantLib::Observer *, QuantLib::Observer *, std::_Identity<QuantLib::Observer *>, std::less<QuantLib::Observer *>>::_Rb_tree_impl" = type { [8 x i8], %"struct.std::_Rb_tree_header" }
%"struct.std::pair" = type { %"class.QuantLib::Date", %"class.QuantLib::Date" }

; Function Attrs: mustprogress nounwind uwtable
define linkonce_odr noundef i32 @_ZNK8QuantLib6Period5unitsEv(ptr noundef nonnull align 4 dereferenceable(8) %this) #5 comdat align 2 {
entry:
  %this.addr = alloca ptr, align 8
  store ptr %this, ptr %this.addr, align 8, !tbaa !3
  %this1 = load ptr, ptr %this.addr, align 8
  %units_ = getelementptr inbounds nuw %"class.QuantLib::Period", ptr %this1, i32 0, i32 1
  %0 = load i32, ptr %units_, align 4, !tbaa !35
  ret i32 %0
}

; Function Attrs: mustprogress nounwind uwtable
define linkonce_odr noundef i32 @_ZNK8QuantLib6Period6lengthEv(ptr noundef nonnull align 4 dereferenceable(8) %this) #5 comdat align 2 {
entry:
  %this.addr = alloca ptr, align 8
  store ptr %this, ptr %this.addr, align 8, !tbaa !3
  %this1 = load ptr, ptr %this.addr, align 8
  %length_ = getelementptr inbounds nuw %"class.QuantLib::Period", ptr %this1, i32 0, i32 0
  %0 = load i32, ptr %length_, align 4, !tbaa !34
  ret i32 %0
}

; Function Attrs: inlinehint mustprogress uwtable
define linkonce_odr i64 @_ZNK8QuantLib4DatemiERKNS_6PeriodE(ptr noundef nonnull align 8 dereferenceable(8) %this, ptr noundef nonnull align 4 dereferenceable(8) %p) #3 comdat align 2 {
entry:
  %retval = alloca %"class.QuantLib::Date", align 8
  %this.addr = alloca ptr, align 8
  %p.addr = alloca ptr, align 8
  store ptr %this, ptr %this.addr, align 8, !tbaa !3
  store ptr %p, ptr %p.addr, align 8, !tbaa !3
  %this1 = load ptr, ptr %this.addr, align 8
  %0 = load ptr, ptr %p.addr, align 8, !tbaa !3
  %call = call noundef i32 @_ZNK8QuantLib6Period6lengthEv(ptr noundef nonnull align 4 dereferenceable(8) %0)
  %sub = sub nsw i32 0, %call
  %1 = load ptr, ptr %p.addr, align 8, !tbaa !3
  %call2 = call noundef i32 @_ZNK8QuantLib6Period5unitsEv(ptr noundef nonnull align 4 dereferenceable(8) %1)
  %call3 = call i64 @_ZN8QuantLib4Date7advanceERKS0_iNS_8TimeUnitE(ptr noundef nonnull align 8 dereferenceable(8) %this1, i32 noundef %sub, i32 noundef %call2)
  %coerce.dive = getelementptr inbounds nuw %"class.QuantLib::Date", ptr %retval, i32 0, i32 0
  store i64 %call3, ptr %coerce.dive, align 8
  %coerce.dive4 = getelementptr inbounds nuw %"class.QuantLib::Date", ptr %retval, i32 0, i32 0
  %2 = load i64, ptr %coerce.dive4, align 8
  ret i64 %2
}

; Function Attrs: mustprogress nounwind uwtable
define linkonce_odr noundef zeroext i1 @_ZNK8QuantLib22InflationTermStructure19hasExplicitBaseDateEv(ptr noundef nonnull align 8 dereferenceable(113) %this) #5 comdat align 2 {
entry:
  %this.addr = alloca ptr, align 8
  store ptr %this, ptr %this.addr, align 8, !tbaa !3
  %this1 = load ptr, ptr %this.addr, align 8
  %hasExplicitBaseDate_ = getelementptr inbounds nuw %"class.QuantLib::InflationTermStructure", ptr %this1, i32 0, i32 7
  %0 = load i8, ptr %hasExplicitBaseDate_, align 8, !tbaa !32, !range !41, !noundef !42
  %loadedv = trunc i8 %0 to i1
  ret i1 %loadedv
}

; Function Attrs: mustprogress uwtable
define i64 @_ZNK8QuantLib22InflationTermStructure8baseDateEv(ptr noundef nonnull align 8 dereferenceable(113) %this) unnamed_addr #2 align 2 {
entry:
  %retval = alloca %"class.QuantLib::Date", align 8
  %this.addr = alloca ptr, align 8
  %ref.tmp = alloca %"struct.std::pair", align 8
  %ref.tmp2 = alloca %"class.QuantLib::Date", align 8
  %ref.tmp4 = alloca %"class.QuantLib::Period", align 4
  store ptr %this, ptr %this.addr, align 8, !tbaa !3
  %this1 = load ptr, ptr %this.addr, align 8
  %call = call noundef zeroext i1 @_ZNK8QuantLib22InflationTermStructure19hasExplicitBaseDateEv(ptr noundef nonnull align 8 dereferenceable(113) %this1)
  br i1 %call, label %if.then, label %if.else

if.then:                                          ; preds = %entry
  %baseDate_ = getelementptr inbounds nuw %"class.QuantLib::InflationTermStructure", ptr %this1, i32 0, i32 6
  call void @llvm.memcpy.p0.p0.i64(ptr align 8 %retval, ptr align 8 %baseDate_, i64 8, i1 false), !tbaa.struct !30
  br label %return

if.else:                                          ; preds = %entry
  call void @llvm.lifetime.start.p0(i64 16, ptr %ref.tmp) #16
  call void @llvm.lifetime.start.p0(i64 8, ptr %ref.tmp2) #16
  %vtable = load ptr, ptr %this1, align 8, !tbaa !7
  %vfn = getelementptr inbounds ptr, ptr %vtable, i64 5
  %0 = load ptr, ptr %vfn, align 8
  %call3 = call noundef nonnull align 8 dereferenceable(8) ptr %0(ptr noundef nonnull align 8 dereferenceable(64) %this1)
  call void @llvm.lifetime.start.p0(i64 8, ptr %ref.tmp4) #16
  %vtable5 = load ptr, ptr %this1, align 8, !tbaa !7
  %vfn6 = getelementptr inbounds ptr, ptr %vtable5, i64 9
  %1 = load ptr, ptr %vfn6, align 8
  %call7 = call i64 %1(ptr noundef nonnull align 8 dereferenceable(113) %this1)
  store i64 %call7, ptr %ref.tmp4, align 4
  %call8 = call i64 @_ZNK8QuantLib4DatemiERKNS_6PeriodE(ptr noundef nonnull align 8 dereferenceable(8) %call3, ptr noundef nonnull align 4 dereferenceable(8) %ref.tmp4)
  %coerce.dive = getelementptr inbounds nuw %"class.QuantLib::Date", ptr %ref.tmp2, i32 0, i32 0
  store i64 %call8, ptr %coerce.dive, align 8
  %vtable9 = load ptr, ptr %this1, align 8, !tbaa !7
  %vfn10 = getelementptr inbounds ptr, ptr %vtable9, i64 10
  %2 = load ptr, ptr %vfn10, align 8
  %call11 = call noundef i32 %2(ptr noundef nonnull align 8 dereferenceable(113) %this1)
  %call12 = call { i64, i64 } @_ZN8QuantLib15inflationPeriodERKNS_4DateENS_9FrequencyE(ptr noundef nonnull align 8 dereferenceable(8) %ref.tmp2, i32 noundef %call11)
  %3 = getelementptr inbounds nuw { i64, i64 }, ptr %ref.tmp, i32 0, i32 0
  %4 = extractvalue { i64, i64 } %call12, 0
  store i64 %4, ptr %3, align 8
  %5 = getelementptr inbounds nuw { i64, i64 }, ptr %ref.tmp, i32 0, i32 1
  %6 = extractvalue { i64, i64 } %call12, 1
  store i64 %6, ptr %5, align 8
  %first = getelementptr inbounds nuw %"struct.std::pair", ptr %ref.tmp, i32 0, i32 0
  call void @llvm.memcpy.p0.p0.i64(ptr align 8 %retval, ptr align 8 %first, i64 8, i1 false), !tbaa.struct !30
  call void @llvm.lifetime.end.p0(i64 8, ptr %ref.tmp4) #16
  call void @llvm.lifetime.end.p0(i64 8, ptr %ref.tmp2) #16
  call void @llvm.lifetime.end.p0(i64 16, ptr %ref.tmp) #16
  br label %return

return:                                           ; preds = %if.else, %if.then
  %coerce.dive13 = getelementptr inbounds nuw %"class.QuantLib::Date", ptr %retval, i32 0, i32 0
  %7 = load i64, ptr %coerce.dive13, align 8
  ret i64 %7
}