; Function Attrs: mustprogress uwtable
define i64 @_ZNK8QuantLib22InflationTermStructure8baseDateEv(ptr noundef nonnull align 8 dereferenceable(113) %this) unnamed_addr #3 align 2 {
entry:
  %ref.tmp2 = alloca %"class.QuantLib::Date", align 8
  %hasExplicitBaseDate_.i = getelementptr inbounds nuw i8, ptr %this, i64 112
  %0 = load i8, ptr %hasExplicitBaseDate_.i, align 8, !tbaa !39, !range !41, !noundef !42
  %loadedv.i = trunc nuw i8 %0 to i1
  br i1 %loadedv.i, label %if.then, label %if.else

if.then:                                          ; preds = %entry
  %baseDate_ = getelementptr inbounds nuw i8, ptr %this, i64 104
  %retval.sroa.0.0.copyload = load i64, ptr %baseDate_, align 8, !tbaa !8
  br label %return

if.else:                                          ; preds = %entry
  call void @llvm.lifetime.start.p0(i64 8, ptr nonnull %ref.tmp2) #18
  %vtable = load ptr, ptr %this, align 8, !tbaa !14
  %vfn = getelementptr inbounds i8, ptr %vtable, i64 40
  %1 = load ptr, ptr %vfn, align 8
  %call3 = tail call noundef nonnull align 8 dereferenceable(8) ptr %1(ptr noundef nonnull align 8 dereferenceable(64) %this)
  %vtable5 = load ptr, ptr %this, align 8, !tbaa !14
  %vfn6 = getelementptr inbounds i8, ptr %vtable5, i64 72
  %2 = load ptr, ptr %vfn6, align 8
  %call7 = tail call i64 %2(ptr noundef nonnull align 8 dereferenceable(113) %this)
  %ref.tmp4.sroa.0.0.extract.trunc = trunc i64 %call7 to i32
  %ref.tmp4.sroa.4.0.extract.shift = lshr i64 %call7, 32
  %ref.tmp4.sroa.4.0.extract.trunc = trunc nuw i64 %ref.tmp4.sroa.4.0.extract.shift to i32
  %sub.i = sub nsw i32 0, %ref.tmp4.sroa.0.0.extract.trunc
  %call3.i = tail call i64 @_ZN8QuantLib4Date7advanceERKS0_iNS_8TimeUnitE(ptr noundef nonnull align 8 dereferenceable(8) %call3, i32 noundef %sub.i, i32 noundef %ref.tmp4.sroa.4.0.extract.trunc)
  store i64 %call3.i, ptr %ref.tmp2, align 8
  %vtable9 = load ptr, ptr %this, align 8, !tbaa !14
  %vfn10 = getelementptr inbounds i8, ptr %vtable9, i64 80
  %3 = load ptr, ptr %vfn10, align 8
  %call11 = tail call noundef i32 %3(ptr noundef nonnull align 8 dereferenceable(113) %this)
  %call12 = call { i64, i64 } @_ZN8QuantLib15inflationPeriodERKNS_4DateENS_9FrequencyE(ptr noundef nonnull align 8 dereferenceable(8) %ref.tmp2, i32 noundef %call11)
  %4 = extractvalue { i64, i64 } %call12, 0
  call void @llvm.lifetime.end.p0(i64 8, ptr nonnull %ref.tmp2) #18
  br label %return

return:                                           ; preds = %if.else, %if.then
  %retval.sroa.0.0 = phi i64 [ %retval.sroa.0.0.copyload, %if.then ], [ %4, %if.else ]
  ret i64 %retval.sroa.0.0
}